target datalayout = "e-m:e-p270:32:32-p271:32:32-p272:64:64-i64:64-i128:128-f80:128-n8:16:32:64-S128"
target triple = "x86_64-unknown-linux-gnu"

%"class.OpenImageIO_v2_6_0::simd::vbool4" = type { %union.anon.1 }
%union.anon.1 = type { <4 x float> }
%"class.OpenImageIO_v2_6_0::simd::vint4" = type { %union.anon.32 }
%union.anon.32 = type { <2 x i64> }

; Function Attrs: mustprogress nounwind uwtable
define linkonce_odr hidden noundef <4 x float> @_ZNK18OpenImageIO_v2_6_04simd6vbool44simdEv(ptr noundef nonnull align 16 dereferenceable(16) %this) #14 comdat align 2 {
entry:
  %this.addr = alloca ptr, align 8
  store ptr %this, ptr %this.addr, align 8
  %this1 = load ptr, ptr %this.addr, align 8
  %0 = getelementptr inbounds %"class.OpenImageIO_v2_6_0::simd::vbool4", ptr %this1, i32 0, i32 0
  %1 = load <4 x float>, ptr %0, align 16
  ret <4 x float> %1
}

; Function Attrs: mustprogress nounwind uwtable
define linkonce_odr hidden void @_ZN18OpenImageIO_v2_6_04simd6vbool4C2ERKDv4_f(ptr noundef nonnull align 16 dereferenceable(16) %this, ptr noundef nonnull align 16 dereferenceable(16) %m) unnamed_addr #1 comdat align 2 {
entry:
  %this.addr = alloca ptr, align 8
  %m.addr = alloca ptr, align 8
  store ptr %this, ptr %this.addr, align 8
  store ptr %m, ptr %m.addr, align 8
  %this1 = load ptr, ptr %this.addr, align 8
  %0 = getelementptr inbounds %"class.OpenImageIO_v2_6_0::simd::vbool4", ptr %this1, i32 0, i32 0
  %1 = load ptr, ptr %m.addr, align 8
  %2 = load <4 x float>, ptr %1, align 16
  store <4 x float> %2, ptr %0, align 16
  ret void
}

; Function Attrs: mustprogress nounwind uwtable
define linkonce_odr hidden noundef <2 x i64> @_ZNK18OpenImageIO_v2_6_04simd5vint4cvDv2_xEv(ptr noundef nonnull align 16 dereferenceable(16) %this) #14 comdat align 2 {
entry:
  %this.addr = alloca ptr, align 8
  store ptr %this, ptr %this.addr, align 8
  %this1 = load ptr, ptr %this.addr, align 8
  %0 = getelementptr inbounds %"class.OpenImageIO_v2_6_0::simd::vint4", ptr %this1, i32 0, i32 0
  %1 = load <2 x i64>, ptr %0, align 16
  ret <2 x i64> %1
}

; Function Attrs: mustprogress nounwind uwtable
define linkonce_odr hidden void @_ZN18OpenImageIO_v2_6_04simd5vint4C2Ev(ptr noundef nonnull align 16 dereferenceable(16) %this) unnamed_addr #1 comdat align 2 {
entry:
  %this.addr = alloca ptr, align 8
  store ptr %this, ptr %this.addr, align 8
  ret void
}

; Function Attrs: mustprogress nounwind uwtable
define linkonce_odr hidden void @_ZN18OpenImageIO_v2_6_04simd5vint4C2ERKDv2_x(ptr noundef nonnull align 16 dereferenceable(16) %this, ptr noundef nonnull align 16 dereferenceable(16) %m) unnamed_addr #1 comdat align 2 {
entry:
  %this.addr = alloca ptr, align 8
  %m.addr = alloca ptr, align 8
  store ptr %this, ptr %this.addr, align 8
  store ptr %m, ptr %m.addr, align 8
  %this1 = load ptr, ptr %this.addr, align 8
  %0 = getelementptr inbounds %"class.OpenImageIO_v2_6_0::simd::vint4", ptr %this1, i32 0, i32 0
  %1 = load ptr, ptr %m.addr, align 8
  %2 = load <2 x i64>, ptr %1, align 16
  store <2 x i64> %2, ptr %0, align 16
  ret void
}

; Function Attrs: mustprogress nounwind uwtable
define linkonce_odr hidden noundef <2 x i64> @_ZNK18OpenImageIO_v2_6_04simd5vint44simdEv(ptr noundef nonnull align 16 dereferenceable(16) %this) #14 comdat align 2 {
entry:
  %this.addr = alloca ptr, align 8
  store ptr %this, ptr %this.addr, align 8
  %this1 = load ptr, ptr %this.addr, align 8
  %0 = getelementptr inbounds %"class.OpenImageIO_v2_6_0::simd::vint4", ptr %this1, i32 0, i32 0
  %1 = load <2 x i64>, ptr %0, align 16
  ret <2 x i64> %1
}

; Function Attrs: mustprogress nounwind uwtable
define linkonce_odr hidden void @_ZN18OpenImageIO_v2_6_04simd5vint4C2ERKS1_(ptr noundef nonnull align 16 dereferenceable(16) %this, ptr noundef nonnull align 16 dereferenceable(16) %other) unnamed_addr #1 comdat align 2 {
entry:
  %this.addr = alloca ptr, align 8
  %other.addr = alloca ptr, align 8
  store ptr %this, ptr %this.addr, align 8
  store ptr %other, ptr %other.addr, align 8
  %this1 = load ptr, ptr %this.addr, align 8
  %0 = load ptr, ptr %other.addr, align 8
  %1 = getelementptr inbounds %"class.OpenImageIO_v2_6_0::simd::vint4", ptr %0, i32 0, i32 0
  %2 = load <2 x i64>, ptr %1, align 16
  %3 = getelementptr inbounds %"class.OpenImageIO_v2_6_0::simd::vint4", ptr %this1, i32 0, i32 0
  store <2 x i64> %2, ptr %3, align 16
  ret void
}

; Function Attrs: mustprogress uwtable
define hidden void @_ZN18OpenImageIO_v2_6_03pvt18wrap_periodic_simdERNS_4simd5vint4ERKS2_S5_(ptr noalias sret(%"class.OpenImageIO_v2_6_0::simd::vbool4") align 16 %agg.result, ptr noundef nonnull align 16 dereferenceable(16) %coord_, ptr noundef nonnull align 16 dereferenceable(16) %origin, ptr noundef nonnull align 16 dereferenceable(16) %width) #6 {
entry:
  %this.addr.i105 = alloca ptr, align 8
  %i.addr.i106 = alloca i32, align 4
  %this.addr.i100 = alloca ptr, align 8
  %i.addr.i101 = alloca i32, align 4
  %__a.addr.i96 = alloca <2 x i64>, align 16
  %__b.addr.i97 = alloca <2 x i64>, align 16
  %.compoundliteral.i95 = alloca <2 x i64>, align 16
  %__i3.addr.i = alloca i32, align 4
  %__i2.addr.i = alloca i32, align 4
  %__i1.addr.i = alloca i32, align 4
  %__i0.addr.i = alloca i32, align 4
  %.compoundliteral.i = alloca <4 x i32>, align 16
  %__i.addr.i = alloca i32, align 4
  %this.addr.i90 = alloca ptr, align 8
  %a.addr.i91 = alloca i32, align 4
  %__a.addr.i88 = alloca <2 x i64>, align 16
  %__b.addr.i89 = alloca <2 x i64>, align 16
  %__a.addr.i85 = alloca <2 x i64>, align 16
  %__b.addr.i86 = alloca <2 x i64>, align 16
  %__a.addr.i84 = alloca <4 x float>, align 16
  %__a.addr.i83 = alloca <4 x float>, align 16
  %__a.addr.i81 = alloca <2 x i64>, align 16
  %__b.addr.i82 = alloca <2 x i64>, align 16
  %__a.addr.i79 = alloca <2 x i64>, align 16
  %__b.addr.i80 = alloca <2 x i64>, align 16
  %__a.addr.i76 = alloca <2 x i64>, align 16
  %__b.addr.i77 = alloca <2 x i64>, align 16
  %__a.addr.i74 = alloca <2 x i64>, align 16
  %__b.addr.i75 = alloca <2 x i64>, align 16
  %__a.addr.i71 = alloca <2 x i64>, align 16
  %__b.addr.i72 = alloca <2 x i64>, align 16
  %__a.addr.i69 = alloca <2 x i64>, align 16
  %__b.addr.i = alloca <2 x i64>, align 16
  %__a.addr.i68 = alloca <2 x i64>, align 16
  %__a.addr.i = alloca <2 x i64>, align 16
  %this.addr.i66 = alloca ptr, align 8
  %i.addr.i = alloca i32, align 4
  %result.ptr.i60 = alloca ptr, align 8
  %a.addr.i61 = alloca ptr, align 8
  %b.addr.i62 = alloca ptr, align 8
  %i.i = alloca i32, align 4
  %result.ptr.i55 = alloca ptr, align 8
  %anyval.i = alloca <2 x i64>, align 16
  %ref.tmp.i56 = alloca <4 x float>, align 16
  %this.addr.i52 = alloca ptr, align 8
  %a.addr.i53 = alloca i32, align 4
  %result.ptr.i45 = alloca ptr, align 8
  %a.addr.i46 = alloca ptr, align 8
  %b.addr.i47 = alloca ptr, align 8
  %ref.tmp.i48 = alloca <2 x i64>, align 16
  %this.addr.i42 = alloca ptr, align 8
  %other.addr.i43 = alloca ptr, align 8
  %this.addr.i39 = alloca ptr, align 8
  %other.addr.i40 = alloca ptr, align 8
  %this.addr.i36 = alloca ptr, align 8
  %other.addr.i37 = alloca ptr, align 8
  %this.addr.i33 = alloca ptr, align 8
  %other.addr.i34 = alloca ptr, align 8
  %this.addr.i = alloca ptr, align 8
  %other.addr.i = alloca ptr, align 8
  %result.ptr.i25 = alloca ptr, align 8
  %a.addr.i26 = alloca ptr, align 8
  %b.addr.i27 = alloca ptr, align 8
  %mask.addr.i = alloca ptr, align 8
  %ref.tmp.i28 = alloca <2 x i64>, align 16
  %result.ptr.i18 = alloca ptr, align 8
  %a.addr.i19 = alloca ptr, align 8
  %b.addr.i20 = alloca ptr, align 8
  %ref.tmp.i21 = alloca <2 x i64>, align 16
  %result.ptr.i11 = alloca ptr, align 8
  %a.addr.i12 = alloca ptr, align 8
  %b.addr.i13 = alloca ptr, align 8
  %ref.tmp.i14 = alloca <2 x i64>, align 16
  %result.ptr.i = alloca ptr, align 8
  %a.addr.i = alloca ptr, align 8
  %b.addr.i = alloca ptr, align 8
  %ref.tmp.i = alloca <4 x float>, align 16
  %result.ptr = alloca ptr, align 8
  %coord_.addr = alloca ptr, align 8
  %origin.addr = alloca ptr, align 8
  %width.addr = alloca ptr, align 8
  %coord = alloca %"class.OpenImageIO_v2_6_0::simd::vint4", align 16
  %ref.tmp = alloca %"class.OpenImageIO_v2_6_0::simd::vint4", align 16
  %ref.tmp1 = alloca %"class.OpenImageIO_v2_6_0::simd::vint4", align 16
  %ref.tmp3 = alloca %"class.OpenImageIO_v2_6_0::simd::vint4", align 16
  %ref.tmp4 = alloca %"class.OpenImageIO_v2_6_0::simd::vint4", align 16
  %ref.tmp5 = alloca %"class.OpenImageIO_v2_6_0::simd::vbool4", align 16
  %ref.tmp6 = alloca %"class.OpenImageIO_v2_6_0::simd::vint4", align 16
  %ref.tmp8 = alloca %"class.OpenImageIO_v2_6_0::simd::vint4", align 16
  store ptr %agg.result, ptr %result.ptr, align 8
  store ptr %coord_, ptr %coord_.addr, align 8
  store ptr %origin, ptr %origin.addr, align 8
  store ptr %width, ptr %width.addr, align 8
  %0 = load ptr, ptr %coord_.addr, align 8
  call void @_ZN18OpenImageIO_v2_6_04simd5vint4C2ERKS1_(ptr noundef nonnull align 16 dereferenceable(16) %coord, ptr noundef nonnull align 16 dereferenceable(16) %0)
  %1 = load ptr, ptr %origin.addr, align 8
  call void @llvm.experimental.noalias.scope.decl(metadata !58)
  store ptr %ref.tmp, ptr %result.ptr.i45, align 8, !noalias !58
  store ptr %coord, ptr %a.addr.i46, align 8, !noalias !58
  store ptr %1, ptr %b.addr.i47, align 8, !noalias !58
  %2 = load ptr, ptr %a.addr.i46, align 8, !noalias !58
  %call.i49 = call noundef <2 x i64> @_ZNK18OpenImageIO_v2_6_04simd5vint44simdEv(ptr noundef nonnull align 16 dereferenceable(16) %2)
  %3 = load ptr, ptr %b.addr.i47, align 8, !noalias !58
  %call1.i50 = call noundef <2 x i64> @_ZNK18OpenImageIO_v2_6_04simd5vint44simdEv(ptr noundef nonnull align 16 dereferenceable(16) %3)
  store <2 x i64> %call.i49, ptr %__a.addr.i88, align 16
  store <2 x i64> %call1.i50, ptr %__b.addr.i89, align 16
  %4 = load <2 x i64>, ptr %__a.addr.i88, align 16
  %5 = bitcast <2 x i64> %4 to <4 x i32>
  %6 = load <2 x i64>, ptr %__b.addr.i89, align 16
  %7 = bitcast <2 x i64> %6 to <4 x i32>
  %sub.i = sub <4 x i32> %5, %7
  %8 = bitcast <4 x i32> %sub.i to <2 x i64>
  store <2 x i64> %8, ptr %ref.tmp.i48, align 16, !noalias !58
  call void @_ZN18OpenImageIO_v2_6_04simd5vint4C2ERKDv2_x(ptr noundef nonnull align 16 dereferenceable(16) %ref.tmp, ptr noundef nonnull align 16 dereferenceable(16) %ref.tmp.i48)
  store ptr %coord, ptr %this.addr.i42, align 8
  store ptr %ref.tmp, ptr %other.addr.i43, align 8
  %this1.i44 = load ptr, ptr %this.addr.i42, align 8
  %9 = load ptr, ptr %other.addr.i43, align 8
  %10 = load <2 x i64>, ptr %9, align 16
  store <2 x i64> %10, ptr %this1.i44, align 16
  %11 = load ptr, ptr %width.addr, align 8
  call void @llvm.experimental.noalias.scope.decl(metadata !61)
  store ptr %ref.tmp1, ptr %result.ptr.i60, align 8, !noalias !61
  store ptr %coord, ptr %a.addr.i61, align 8, !noalias !61
  store ptr %11, ptr %b.addr.i62, align 8, !noalias !61
  call void @_ZN18OpenImageIO_v2_6_04simd5vint4C2Ev(ptr noundef nonnull align 16 dereferenceable(16) %ref.tmp1)
  store i32 0, ptr %i.i, align 4, !noalias !61
  br label %for.cond.i

for.cond.i:                                       ; preds = %for.body.i, %entry
  %12 = load i32, ptr %i.i, align 4, !noalias !61
  %cmp.i = icmp slt i32 %12, 4
  br i1 %cmp.i, label %for.body.i, label %_ZN18OpenImageIO_v2_6_04simdrmERKNS0_5vint4ES3_.exit

for.body.i:                                       ; preds = %for.cond.i
  %13 = load ptr, ptr %a.addr.i61, align 8, !noalias !61
  %14 = load i32, ptr %i.i, align 4, !noalias !61
  store ptr %13, ptr %this.addr.i105, align 8
  store i32 %14, ptr %i.addr.i106, align 4
  %this1.i107 = load ptr, ptr %this.addr.i105, align 8
  %15 = load i32, ptr %i.addr.i106, align 4
  %idxprom.i108 = sext i32 %15 to i64
  %arrayidx.i109 = getelementptr inbounds [4 x i32], ptr %this1.i107, i64 0, i64 %idxprom.i108
  %16 = load i32, ptr %arrayidx.i109, align 4
  %17 = load ptr, ptr %b.addr.i62, align 8, !noalias !61
  %18 = load i32, ptr %i.i, align 4, !noalias !61
  store ptr %17, ptr %this.addr.i100, align 8
  store i32 %18, ptr %i.addr.i101, align 4
  %this1.i102 = load ptr, ptr %this.addr.i100, align 8
  %19 = load i32, ptr %i.addr.i101, align 4
  %idxprom.i103 = sext i32 %19 to i64
  %arrayidx.i104 = getelementptr inbounds [4 x i32], ptr %this1.i102, i64 0, i64 %idxprom.i103
  %20 = load i32, ptr %arrayidx.i104, align 4
  %rem.i = srem i32 %16, %20
  %21 = load i32, ptr %i.i, align 4, !noalias !61
  store ptr %ref.tmp1, ptr %this.addr.i66, align 8
  store i32 %21, ptr %i.addr.i, align 4
  %this1.i67 = load ptr, ptr %this.addr.i66, align 8
  %22 = load i32, ptr %i.addr.i, align 4
  %idxprom.i = sext i32 %22 to i64
  %arrayidx.i = getelementptr inbounds [4 x i32], ptr %this1.i67, i64 0, i64 %idxprom.i
  store i32 %rem.i, ptr %arrayidx.i, align 4
  %23 = load i32, ptr %i.i, align 4, !noalias !61
  %inc.i = add nsw i32 %23, 1
  store i32 %inc.i, ptr %i.i, align 4, !noalias !61
  br label %for.cond.i, !llvm.loop !64

_ZN18OpenImageIO_v2_6_04simdrmERKNS0_5vint4ES3_.exit: ; preds = %for.cond.i
  store ptr %coord, ptr %this.addr.i39, align 8
  store ptr %ref.tmp1, ptr %other.addr.i40, align 8
  %this1.i41 = load ptr, ptr %this.addr.i39, align 8
  %24 = load ptr, ptr %other.addr.i40, align 8
  %25 = load <2 x i64>, ptr %24, align 16
  store <2 x i64> %25, ptr %this1.i41, align 16
  %26 = load ptr, ptr %width.addr, align 8
  call void @llvm.experimental.noalias.scope.decl(metadata !66)
  store ptr %ref.tmp4, ptr %result.ptr.i18, align 8, !noalias !66
  store ptr %coord, ptr %a.addr.i19, align 8, !noalias !66
  store ptr %26, ptr %b.addr.i20, align 8, !noalias !66
  %27 = load ptr, ptr %a.addr.i19, align 8, !noalias !66
  %call.i22 = call noundef <2 x i64> @_ZNK18OpenImageIO_v2_6_04simd5vint44simdEv(ptr noundef nonnull align 16 dereferenceable(16) %27)
  %28 = load ptr, ptr %b.addr.i20, align 8, !noalias !66
  %call1.i23 = call noundef <2 x i64> @_ZNK18OpenImageIO_v2_6_04simd5vint44simdEv(ptr noundef nonnull align 16 dereferenceable(16) %28)
  store <2 x i64> %call.i22, ptr %__a.addr.i74, align 16
  store <2 x i64> %call1.i23, ptr %__b.addr.i75, align 16
  %29 = load <2 x i64>, ptr %__a.addr.i74, align 16
  %30 = bitcast <2 x i64> %29 to <4 x i32>
  %31 = load <2 x i64>, ptr %__b.addr.i75, align 16
  %32 = bitcast <2 x i64> %31 to <4 x i32>
  %add.i = add <4 x i32> %30, %32
  %33 = bitcast <4 x i32> %add.i to <2 x i64>
  store <2 x i64> %33, ptr %ref.tmp.i21, align 16, !noalias !66
  call void @_ZN18OpenImageIO_v2_6_04simd5vint4C2ERKDv2_x(ptr noundef nonnull align 16 dereferenceable(16) %ref.tmp4, ptr noundef nonnull align 16 dereferenceable(16) %ref.tmp.i21)
  store ptr %ref.tmp6, ptr %this.addr.i52, align 8
  store i32 0, ptr %a.addr.i53, align 4
  %this1.i54 = load ptr, ptr %this.addr.i52, align 8
  %34 = load i32, ptr %a.addr.i53, align 4
  store ptr %this1.i54, ptr %this.addr.i90, align 8
  store i32 %34, ptr %a.addr.i91, align 4
  %this1.i92 = load ptr, ptr %this.addr.i90, align 8
  %35 = load i32, ptr %a.addr.i91, align 4
  store i32 %35, ptr %__i.addr.i, align 4
  %36 = load i32, ptr %__i.addr.i, align 4
  %37 = load i32, ptr %__i.addr.i, align 4
  %38 = load i32, ptr %__i.addr.i, align 4
  %39 = load i32, ptr %__i.addr.i, align 4
  store i32 %36, ptr %__i3.addr.i, align 4
  store i32 %37, ptr %__i2.addr.i, align 4
  store i32 %38, ptr %__i1.addr.i, align 4
  store i32 %39, ptr %__i0.addr.i, align 4
  %40 = load i32, ptr %__i0.addr.i, align 4
  %vecinit.i = insertelement <4 x i32> undef, i32 %40, i32 0
  %41 = load i32, ptr %__i1.addr.i, align 4
  %vecinit1.i = insertelement <4 x i32> %vecinit.i, i32 %41, i32 1
  %42 = load i32, ptr %__i2.addr.i, align 4
  %vecinit2.i = insertelement <4 x i32> %vecinit1.i, i32 %42, i32 2
  %43 = load i32, ptr %__i3.addr.i, align 4
  %vecinit3.i = insertelement <4 x i32> %vecinit2.i, i32 %43, i32 3
  store <4 x i32> %vecinit3.i, ptr %.compoundliteral.i, align 16
  %44 = load <4 x i32>, ptr %.compoundliteral.i, align 16
  %45 = bitcast <4 x i32> %44 to <2 x i64>
  store <2 x i64> %45, ptr %this1.i92, align 16
  call void @llvm.experimental.noalias.scope.decl(metadata !69)
  store ptr %ref.tmp5, ptr %result.ptr.i, align 8, !noalias !69
  store ptr %coord, ptr %a.addr.i, align 8, !noalias !69
  store ptr %ref.tmp6, ptr %b.addr.i, align 8, !noalias !69
  %46 = load ptr, ptr %a.addr.i, align 8, !noalias !69
  %call.i = call noundef <2 x i64> @_ZNK18OpenImageIO_v2_6_04simd5vint4cvDv2_xEv(ptr noundef nonnull align 16 dereferenceable(16) %46)
  %47 = load ptr, ptr %b.addr.i, align 8, !noalias !69
  %call1.i = call noundef <2 x i64> @_ZNK18OpenImageIO_v2_6_04simd5vint4cvDv2_xEv(ptr noundef nonnull align 16 dereferenceable(16) %47)
  store <2 x i64> %call.i, ptr %__a.addr.i69, align 16
  store <2 x i64> %call1.i, ptr %__b.addr.i, align 16
  %48 = load <2 x i64>, ptr %__b.addr.i, align 16
  %49 = load <2 x i64>, ptr %__a.addr.i69, align 16
  store <2 x i64> %48, ptr %__a.addr.i71, align 16
  store <2 x i64> %49, ptr %__b.addr.i72, align 16
  %50 = load <2 x i64>, ptr %__a.addr.i71, align 16
  %51 = bitcast <2 x i64> %50 to <4 x i32>
  %52 = load <2 x i64>, ptr %__b.addr.i72, align 16
  %53 = bitcast <2 x i64> %52 to <4 x i32>
  %cmp.i73 = icmp sgt <4 x i32> %51, %53
  %sext.i = sext <4 x i1> %cmp.i73 to <4 x i32>
  %54 = bitcast <4 x i32> %sext.i to <2 x i64>
  store <2 x i64> %54, ptr %__a.addr.i68, align 16
  %55 = load <2 x i64>, ptr %__a.addr.i68, align 16
  %56 = bitcast <2 x i64> %55 to <4 x float>
  store <4 x float> %56, ptr %ref.tmp.i, align 16, !noalias !69
  call void @_ZN18OpenImageIO_v2_6_04simd6vbool4C2ERKDv4_f(ptr noundef nonnull align 16 dereferenceable(16) %ref.tmp5, ptr noundef nonnull align 16 dereferenceable(16) %ref.tmp.i)
  call void @llvm.experimental.noalias.scope.decl(metadata !72)
  store ptr %ref.tmp3, ptr %result.ptr.i25, align 8, !noalias !72
  store ptr %coord, ptr %a.addr.i26, align 8, !noalias !72
  store ptr %ref.tmp4, ptr %b.addr.i27, align 8, !noalias !72
  store ptr %ref.tmp5, ptr %mask.addr.i, align 8, !noalias !72
  %57 = load ptr, ptr %mask.addr.i, align 8, !noalias !72
  %call.i29 = call noundef <4 x float> @_ZNK18OpenImageIO_v2_6_04simd6vbool44simdEv(ptr noundef nonnull align 16 dereferenceable(16) %57)
  store <4 x float> %call.i29, ptr %__a.addr.i84, align 16
  %58 = load <4 x float>, ptr %__a.addr.i84, align 16
  %59 = bitcast <4 x float> %58 to <2 x i64>
  %60 = load ptr, ptr %b.addr.i27, align 8, !noalias !72
  %call2.i31 = call noundef <2 x i64> @_ZNK18OpenImageIO_v2_6_04simd5vint44simdEv(ptr noundef nonnull align 16 dereferenceable(16) %60)
  store <2 x i64> %59, ptr %__a.addr.i81, align 16
  store <2 x i64> %call2.i31, ptr %__b.addr.i82, align 16
  %61 = load <2 x i64>, ptr %__a.addr.i81, align 16
  %62 = load <2 x i64>, ptr %__b.addr.i82, align 16
  %and.i = and <2 x i64> %61, %62
  %63 = load ptr, ptr %mask.addr.i, align 8, !noalias !72
  %call4.i = call noundef <4 x float> @_ZNK18OpenImageIO_v2_6_04simd6vbool44simdEv(ptr noundef nonnull align 16 dereferenceable(16) %63)
  store <4 x float> %call4.i, ptr %__a.addr.i83, align 16
  %64 = load <4 x float>, ptr %__a.addr.i83, align 16
  %65 = bitcast <4 x float> %64 to <2 x i64>
  %66 = load ptr, ptr %a.addr.i26, align 8, !noalias !72
  %call6.i = call noundef <2 x i64> @_ZNK18OpenImageIO_v2_6_04simd5vint44simdEv(ptr noundef nonnull align 16 dereferenceable(16) %66)
  store <2 x i64> %65, ptr %__a.addr.i85, align 16
  store <2 x i64> %call6.i, ptr %__b.addr.i86, align 16
  %67 = load <2 x i64>, ptr %__a.addr.i85, align 16
  %not.i = xor <2 x i64> %67, <i64 -1, i64 -1>
  %68 = load <2 x i64>, ptr %__b.addr.i86, align 16
  %and.i87 = and <2 x i64> %not.i, %68
  store <2 x i64> %and.i, ptr %__a.addr.i79, align 16
  store <2 x i64> %and.i87, ptr %__b.addr.i80, align 16
  %69 = load <2 x i64>, ptr %__a.addr.i79, align 16
  %70 = load <2 x i64>, ptr %__b.addr.i80, align 16
  %or.i = or <2 x i64> %69, %70
  store <2 x i64> %or.i, ptr %ref.tmp.i28, align 16, !noalias !72
  call void @_ZN18OpenImageIO_v2_6_04simd5vint4C2ERKDv2_x(ptr noundef nonnull align 16 dereferenceable(16) %ref.tmp3, ptr noundef nonnull align 16 dereferenceable(16) %ref.tmp.i28)
  store ptr %coord, ptr %this.addr.i36, align 8
  store ptr %ref.tmp3, ptr %other.addr.i37, align 8
  %this1.i38 = load ptr, ptr %this.addr.i36, align 8
  %71 = load ptr, ptr %other.addr.i37, align 8
  %72 = load <2 x i64>, ptr %71, align 16
  store <2 x i64> %72, ptr %this1.i38, align 16
  %73 = load ptr, ptr %origin.addr, align 8
  call void @llvm.experimental.noalias.scope.decl(metadata !75)
  store ptr %ref.tmp8, ptr %result.ptr.i11, align 8, !noalias !75
  store ptr %coord, ptr %a.addr.i12, align 8, !noalias !75
  store ptr %73, ptr %b.addr.i13, align 8, !noalias !75
  %74 = load ptr, ptr %a.addr.i12, align 8, !noalias !75
  %call.i15 = call noundef <2 x i64> @_ZNK18OpenImageIO_v2_6_04simd5vint44simdEv(ptr noundef nonnull align 16 dereferenceable(16) %74)
  %75 = load ptr, ptr %b.addr.i13, align 8, !noalias !75
  %call1.i16 = call noundef <2 x i64> @_ZNK18OpenImageIO_v2_6_04simd5vint44simdEv(ptr noundef nonnull align 16 dereferenceable(16) %75)
  store <2 x i64> %call.i15, ptr %__a.addr.i76, align 16
  store <2 x i64> %call1.i16, ptr %__b.addr.i77, align 16
  %76 = load <2 x i64>, ptr %__a.addr.i76, align 16
  %77 = bitcast <2 x i64> %76 to <4 x i32>
  %78 = load <2 x i64>, ptr %__b.addr.i77, align 16
  %79 = bitcast <2 x i64> %78 to <4 x i32>
  %add.i78 = add <4 x i32> %77, %79
  %80 = bitcast <4 x i32> %add.i78 to <2 x i64>
  store <2 x i64> %80, ptr %ref.tmp.i14, align 16, !noalias !75
  call void @_ZN18OpenImageIO_v2_6_04simd5vint4C2ERKDv2_x(ptr noundef nonnull align 16 dereferenceable(16) %ref.tmp8, ptr noundef nonnull align 16 dereferenceable(16) %ref.tmp.i14)
  store ptr %coord, ptr %this.addr.i33, align 8
  store ptr %ref.tmp8, ptr %other.addr.i34, align 8
  %this1.i35 = load ptr, ptr %this.addr.i33, align 8
  %81 = load ptr, ptr %other.addr.i34, align 8
  %82 = load <2 x i64>, ptr %81, align 16
  store <2 x i64> %82, ptr %this1.i35, align 16
  %83 = load ptr, ptr %coord_.addr, align 8
  store ptr %83, ptr %this.addr.i, align 8
  store ptr %coord, ptr %other.addr.i, align 8
  %this1.i = load ptr, ptr %this.addr.i, align 8
  %84 = load ptr, ptr %other.addr.i, align 8
  %85 = load <2 x i64>, ptr %84, align 16
  store <2 x i64> %85, ptr %this1.i, align 16
  call void @llvm.experimental.noalias.scope.decl(metadata !78)
  store ptr %agg.result, ptr %result.ptr.i55, align 8, !noalias !78
  store <2 x i64> zeroinitializer, ptr %.compoundliteral.i95, align 16
  %86 = load <2 x i64>, ptr %.compoundliteral.i95, align 16
  store <2 x i64> %86, ptr %anyval.i, align 16, !noalias !78
  %87 = load <2 x i64>, ptr %anyval.i, align 16, !noalias !78
  %88 = load <2 x i64>, ptr %anyval.i, align 16, !noalias !78
  store <2 x i64> %87, ptr %__a.addr.i96, align 16
  store <2 x i64> %88, ptr %__b.addr.i97, align 16
  %89 = load <2 x i64>, ptr %__a.addr.i96, align 16
  %90 = bitcast <2 x i64> %89 to <16 x i8>
  %91 = load <2 x i64>, ptr %__b.addr.i97, align 16
  %92 = bitcast <2 x i64> %91 to <16 x i8>
  %cmp.i98 = icmp eq <16 x i8> %90, %92
  %sext.i99 = sext <16 x i1> %cmp.i98 to <16 x i8>
  %93 = bitcast <16 x i8> %sext.i99 to <2 x i64>
  store <2 x i64> %93, ptr %__a.addr.i, align 16
  %94 = load <2 x i64>, ptr %__a.addr.i, align 16
  %95 = bitcast <2 x i64> %94 to <4 x float>
  store <4 x float> %95, ptr %ref.tmp.i56, align 16, !noalias !78
  call void @_ZN18OpenImageIO_v2_6_04simd6vbool4C2ERKDv4_f(ptr noundef nonnull align 16 dereferenceable(16) %agg.result, ptr noundef nonnull align 16 dereferenceable(16) %ref.tmp.i56)
  ret void
}