; Function Attrs: mustprogress nofree norecurse nosync nounwind memory(argmem: readwrite) uwtable
define hidden void @_ZN18OpenImageIO_v2_6_03pvt18wrap_periodic_simdERNS_4simd5vint4ERKS2_S5_(ptr noalias nocapture writeonly sret(%"class.OpenImageIO_v2_6_0::simd::vbool4") align 16 %agg.result, ptr nocapture noundef nonnull align 16 dereferenceable(16) %coord_, ptr nocapture noundef nonnull readonly align 16 dereferenceable(16) %origin, ptr nocapture noundef nonnull readonly align 16 dereferenceable(16) %width) #9 {
entry:
  %coord = alloca %"class.OpenImageIO_v2_6_0::simd::vint4", align 16
  %ref.tmp1 = alloca %"class.OpenImageIO_v2_6_0::simd::vint4", align 16
  %0 = load <4 x i32>, ptr %coord_, align 16
  %1 = load <4 x i32>, ptr %origin, align 16
  %sub.i = sub <4 x i32> %0, %1
  store <4 x i32> %sub.i, ptr %coord, align 16
  br label %for.body.i

for.body.i:                                       ; preds = %entry, %for.body.i
  %indvars.iv = phi i64 [ 0, %entry ], [ %indvars.iv.next, %for.body.i ]
  %arrayidx.i109 = getelementptr inbounds [4 x i32], ptr %coord, i64 0, i64 %indvars.iv
  %2 = load i32, ptr %arrayidx.i109, align 4
  %arrayidx.i104 = getelementptr inbounds [4 x i32], ptr %width, i64 0, i64 %indvars.iv
  %3 = load i32, ptr %arrayidx.i104, align 4
  %rem.i = srem i32 %2, %3
  %arrayidx.i = getelementptr inbounds [4 x i32], ptr %ref.tmp1, i64 0, i64 %indvars.iv
  store i32 %rem.i, ptr %arrayidx.i, align 4
  %indvars.iv.next = add nuw nsw i64 %indvars.iv, 1
  %exitcond.not = icmp eq i64 %indvars.iv.next, 4
  br i1 %exitcond.not, label %_ZN18OpenImageIO_v2_6_04simdrmERKNS0_5vint4ES3_.exit, label %for.body.i, !llvm.loop !8

_ZN18OpenImageIO_v2_6_04simdrmERKNS0_5vint4ES3_.exit: ; preds = %for.body.i
  %4 = load <2 x i64>, ptr %ref.tmp1, align 16
  %5 = load <4 x i32>, ptr %width, align 16
  %6 = bitcast <2 x i64> %4 to <4 x i32>
  %add.i = add <4 x i32> %5, %6
  %.lobit = ashr <4 x i32> %6, <i32 31, i32 31, i32 31, i32 31>
  %7 = bitcast <4 x i32> %.lobit to <2 x i64>
  %and.i17 = and <4 x i32> %add.i, %.lobit
  %not.i = xor <2 x i64> %7, <i64 -1, i64 -1>
  %and.i87 = and <2 x i64> %4, %not.i
  %8 = bitcast <2 x i64> %and.i87 to <4 x i32>
  %9 = or <4 x i32> %and.i17, %8
  %add.i78 = add <4 x i32> %9, %1
  store <4 x i32> %add.i78, ptr %coord_, align 16
  store <4 x float> <float 0xFFFFFFFFE0000000, float 0xFFFFFFFFE0000000, float 0xFFFFFFFFE0000000, float 0xFFFFFFFFE0000000>, ptr %agg.result, align 16
  ret void
}